; ModuleID = '60/394.c'
source_filename = "60/394.c"
target datalayout = "e-m:e-p270:32:32-p271:32:32-p272:64:64-i64:64-f80:128-n8:16:32:64-S128"
target triple = "x86_64-pc-linux-gnu"

@.str = private unnamed_addr constant [3 x i8] c"%d\00", align 1
@.str.1 = private unnamed_addr constant [7 x i8] c"%d %d\0A\00", align 1
@.str.2 = private unnamed_addr constant [6 x i8] c"empty\00", align 1

; Function Attrs: noinline nounwind uwtable
define dso_local void @main() #0 {
  %1 = alloca i32, align 4
  %2 = alloca i32, align 4
  %3 = alloca i32, align 4
  %4 = alloca i32, align 4
  %5 = alloca [10000 x i32], align 16
  %6 = call i32 (i8*, ...) @__isoc99_scanf(i8* getelementptr inbounds ([3 x i8], [3 x i8]* @.str, i64 0, i64 0), i32* %1)
  store i32 0, i32* %4, align 4
  store i32 2, i32* %2, align 4
  br label %7

7:                                                ; preds = %38, %0
  %8 = load i32, i32* %2, align 4
  %9 = load i32, i32* %1, align 4
  %10 = icmp sle i32 %8, %9
  br i1 %10, label %11, label %41

11:                                               ; preds = %7
  store i32 2, i32* %3, align 4
  br label %12

12:                                               ; preds = %23, %11
  %13 = load i32, i32* %3, align 4
  %14 = load i32, i32* %2, align 4
  %15 = icmp slt i32 %13, %14
  br i1 %15, label %16, label %26

16:                                               ; preds = %12
  %17 = load i32, i32* %2, align 4
  %18 = load i32, i32* %3, align 4
  %19 = srem i32 %17, %18
  %20 = icmp eq i32 %19, 0
  br i1 %20, label %21, label %22

21:                                               ; preds = %16
  br label %26

22:                                               ; preds = %16
  br label %23

23:                                               ; preds = %22
  %24 = load i32, i32* %3, align 4
  %25 = add nsw i32 %24, 1
  store i32 %25, i32* %3, align 4
  br label %12

26:                                               ; preds = %21, %12
  %27 = load i32, i32* %3, align 4
  %28 = load i32, i32* %2, align 4
  %29 = icmp eq i32 %27, %28
  br i1 %29, label %30, label %37

30:                                               ; preds = %26
  %31 = load i32, i32* %2, align 4
  %32 = load i32, i32* %4, align 4
  %33 = sext i32 %32 to i64
  %34 = getelementptr inbounds [10000 x i32], [10000 x i32]* %5, i64 0, i64 %33
  store i32 %31, i32* %34, align 4
  %35 = load i32, i32* %4, align 4
  %36 = add nsw i32 %35, 1
  store i32 %36, i32* %4, align 4
  br label %37

37:                                               ; preds = %30, %26
  br label %38

38:                                               ; preds = %37
  %39 = load i32, i32* %2, align 4
  %40 = add nsw i32 %39, 1
  store i32 %40, i32* %2, align 4
  br label %7

41:                                               ; preds = %7
  store i32 0, i32* %2, align 4
  br label %42

42:                                               ; preds = %71, %41
  %43 = load i32, i32* %2, align 4
  %44 = load i32, i32* %4, align 4
  %45 = sub nsw i32 %44, 1
  %46 = icmp slt i32 %43, %45
  br i1 %46, label %47, label %74

47:                                               ; preds = %42
  %48 = load i32, i32* %2, align 4
  %49 = add nsw i32 %48, 1
  %50 = sext i32 %49 to i64
  %51 = getelementptr inbounds [10000 x i32], [10000 x i32]* %5, i64 0, i64 %50
  %52 = load i32, i32* %51, align 4
  %53 = load i32, i32* %2, align 4
  %54 = sext i32 %53 to i64
  %55 = getelementptr inbounds [10000 x i32], [10000 x i32]* %5, i64 0, i64 %54
  %56 = load i32, i32* %55, align 4
  %57 = sub nsw i32 %52, %56
  %58 = icmp eq i32 %57, 2
  br i1 %58, label %59, label %70

59:                                               ; preds = %47
  %60 = load i32, i32* %2, align 4
  %61 = sext i32 %60 to i64
  %62 = getelementptr inbounds [10000 x i32], [10000 x i32]* %5, i64 0, i64 %61
  %63 = load i32, i32* %62, align 4
  %64 = load i32, i32* %2, align 4
  %65 = add nsw i32 %64, 1
  %66 = sext i32 %65 to i64
  %67 = getelementptr inbounds [10000 x i32], [10000 x i32]* %5, i64 0, i64 %66
  %68 = load i32, i32* %67, align 4
  %69 = call i32 (i8*, ...) @printf(i8* getelementptr inbounds ([7 x i8], [7 x i8]* @.str.1, i64 0, i64 0), i32 %63, i32 %68)
  store i32 0, i32* %3, align 4
  br label %70

70:                                               ; preds = %59, %47
  br label %71

71:                                               ; preds = %70
  %72 = load i32, i32* %2, align 4
  %73 = add nsw i32 %72, 1
  store i32 %73, i32* %2, align 4
  br label %42

74:                                               ; preds = %42
  %75 = load i32, i32* %3, align 4
  %76 = icmp ne i32 %75, 0
  br i1 %76, label %77, label %79

77:                                               ; preds = %74
  %78 = call i32 (i8*, ...) @printf(i8* getelementptr inbounds ([6 x i8], [6 x i8]* @.str.2, i64 0, i64 0))
  br label %79

79:                                               ; preds = %77, %74
  ret void
}

declare dso_local i32 @__isoc99_scanf(i8*, ...) #1

declare dso_local i32 @printf(i8*, ...) #1


!llvm.module.flags = !{!0}
!llvm.ident = !{!1}

!0 = !{i32 1, !"wchar_size", i32 4}
!1 = !{!"clang version 10.0.0-4ubuntu1 "}
